target datalayout = "e-m:e-p270:32:32-p271:32:32-p272:64:64-i64:64-i128:128-f80:128-n8:16:32:64-S128"
target triple = "x86_64-pc-linux-gnu"

%struct.added_obj_st = type { i32, ptr }
%struct.asn1_object_st = type { ptr, ptr, i32, i32, ptr, i32 }

@added = internal global ptr null, align 8
@.str = private unnamed_addr constant [36 x i8] c"../openssl/crypto/objects/obj_dat.c\00", align 1
@ossl_obj_lock = internal global ptr null, align 8
@ossl_obj_lock_init = internal global i32 0, align 4
@obj_lock_initialise_ossl_ret_ = internal global i32 0, align 4
@__func__.ossl_obj_obj2nid = private unnamed_addr constant [17 x i8] c"ossl_obj_obj2nid\00", align 1

; Function Attrs: nounwind uwtable
define ptr @OBJ_bsearch_ex_(ptr noundef %0, ptr noundef %1, i32 noundef %2, i32 noundef %3, ptr noundef %4, i32 noundef %5) #0 {
  %7 = alloca ptr, align 8
  %8 = alloca ptr, align 8
  %9 = alloca i32, align 4
  %10 = alloca i32, align 4
  %11 = alloca ptr, align 8
  %12 = alloca i32, align 4
  %13 = alloca ptr, align 8
  store ptr %0, ptr %7, align 8, !tbaa !10
  store ptr %1, ptr %8, align 8, !tbaa !10
  store i32 %2, ptr %9, align 4, !tbaa !21
  store i32 %3, ptr %10, align 4, !tbaa !21
  store ptr %4, ptr %11, align 8, !tbaa !10
  store i32 %5, ptr %12, align 4, !tbaa !21
  call void @llvm.lifetime.start.p0(i64 8, ptr %13) #6
  %14 = load ptr, ptr %7, align 8, !tbaa !10
  %15 = load ptr, ptr %8, align 8, !tbaa !10
  %16 = load i32, ptr %9, align 4, !tbaa !21
  %17 = load i32, ptr %10, align 4, !tbaa !21
  %18 = load ptr, ptr %11, align 8, !tbaa !10
  %19 = load i32, ptr %12, align 4, !tbaa !21
  %20 = call ptr @ossl_bsearch(ptr noundef %14, ptr noundef %15, i32 noundef %16, i32 noundef %17, ptr noundef %18, i32 noundef %19)
  store ptr %20, ptr %13, align 8, !tbaa !26
  %21 = load ptr, ptr %13, align 8, !tbaa !26
  call void @llvm.lifetime.end.p0(i64 8, ptr %13) #6
  ret ptr %21
}

; Function Attrs: inlinehint nounwind uwtable
define internal i32 @ossl_init_added_lock() #1 {
  %1 = call i32 @OPENSSL_init_crypto(i64 noundef 64, ptr noundef null)
  %2 = call i32 @CRYPTO_THREAD_run_once(ptr noundef @ossl_obj_lock_init, ptr noundef @obj_lock_initialise_ossl_)
  %3 = icmp ne i32 %2, 0
  br i1 %3, label %4, label %6

4:                                                ; preds = %0
  %5 = load i32, ptr @obj_lock_initialise_ossl_ret_, align 4, !tbaa !21
  br label %7

6:                                                ; preds = %0
  br label %7

7:                                                ; preds = %6, %4
  %8 = phi i32 [ %5, %4 ], [ 0, %6 ]
  ret i32 %8
}

; Function Attrs: nounwind uwtable
define ptr @OBJ_bsearch_(ptr noundef %0, ptr noundef %1, i32 noundef %2, i32 noundef %3, ptr noundef %4) #0 {
  %6 = alloca ptr, align 8
  %7 = alloca ptr, align 8
  %8 = alloca i32, align 4
  %9 = alloca i32, align 4
  %10 = alloca ptr, align 8
  store ptr %0, ptr %6, align 8, !tbaa !10
  store ptr %1, ptr %7, align 8, !tbaa !10
  store i32 %2, ptr %8, align 4, !tbaa !21
  store i32 %3, ptr %9, align 4, !tbaa !21
  store ptr %4, ptr %10, align 8, !tbaa !10
  %11 = load ptr, ptr %6, align 8, !tbaa !10
  %12 = load ptr, ptr %7, align 8, !tbaa !10
  %13 = load i32, ptr %8, align 4, !tbaa !21
  %14 = load i32, ptr %9, align 4, !tbaa !21
  %15 = load ptr, ptr %10, align 8, !tbaa !10
  %16 = call ptr @OBJ_bsearch_ex_(ptr noundef %11, ptr noundef %12, i32 noundef %13, i32 noundef %14, ptr noundef %15, i32 noundef 0)
  ret ptr %16
}

; Function Attrs: inlinehint nounwind uwtable
define internal void @ossl_obj_unlock(i32 noundef %0) #1 {
  %2 = alloca i32, align 4
  store i32 %0, ptr %2, align 4, !tbaa !21
  %3 = load i32, ptr %2, align 4, !tbaa !21
  %4 = icmp ne i32 %3, 0
  br i1 %4, label %5, label %8

5:                                                ; preds = %1
  %6 = load ptr, ptr @ossl_obj_lock, align 8, !tbaa !10
  %7 = call i32 @CRYPTO_THREAD_unlock(ptr noundef %6)
  br label %8

8:                                                ; preds = %5, %1
  ret void
}

; Function Attrs: inlinehint nounwind uwtable
define internal ptr @lh_ADDED_OBJ_retrieve(ptr noundef %0, ptr noundef %1) #1 {
  %3 = alloca ptr, align 8
  %4 = alloca ptr, align 8
  store ptr %0, ptr %3, align 8, !tbaa !3
  store ptr %1, ptr %4, align 8, !tbaa !11
  %5 = load ptr, ptr %3, align 8, !tbaa !3
  %6 = load ptr, ptr %4, align 8, !tbaa !11
  %7 = call ptr @OPENSSL_LH_retrieve(ptr noundef %5, ptr noundef %6)
  ret ptr %7
}

; Function Attrs: inlinehint nounwind uwtable
define internal i32 @ossl_obj_read_lock(i32 noundef %0) #1 {
  %2 = alloca i32, align 4
  %3 = alloca i32, align 4
  store i32 %0, ptr %3, align 4, !tbaa !21
  %4 = load i32, ptr %3, align 4, !tbaa !21
  %5 = icmp ne i32 %4, 0
  br i1 %5, label %7, label %6

6:                                                ; preds = %1
  store i32 1, ptr %2, align 4
  br label %14

7:                                                ; preds = %1
  %8 = call i32 @ossl_init_added_lock()
  %9 = icmp ne i32 %8, 0
  br i1 %9, label %11, label %10

10:                                               ; preds = %7
  store i32 0, ptr %2, align 4
  br label %14

11:                                               ; preds = %7
  %12 = load ptr, ptr @ossl_obj_lock, align 8, !tbaa !10
  %13 = call i32 @CRYPTO_THREAD_read_lock(ptr noundef %12)
  store i32 %13, ptr %2, align 4
  br label %14

14:                                               ; preds = %11, %10, %6
  %15 = load i32, ptr %2, align 4
  ret i32 %15
}

; Function Attrs: nounwind uwtable
define internal ptr @OBJ_bsearch_obj(ptr noundef %0, ptr noundef %1, i32 noundef %2) #0 {
  %4 = alloca ptr, align 8
  %5 = alloca ptr, align 8
  %6 = alloca i32, align 4
  store ptr %0, ptr %4, align 8, !tbaa !36
  store ptr %1, ptr %5, align 8, !tbaa !28
  store i32 %2, ptr %6, align 4, !tbaa !21
  %7 = load ptr, ptr %4, align 8, !tbaa !36
  %8 = load ptr, ptr %5, align 8, !tbaa !28
  %9 = load i32, ptr %6, align 4, !tbaa !21
  %10 = call ptr @OBJ_bsearch_(ptr noundef %7, ptr noundef %8, i32 noundef %9, i32 noundef 4, ptr noundef @obj_cmp_BSEARCH_CMP_FN)
  ret ptr %10
}

; Function Attrs: nounwind uwtable
define internal i32 @ossl_obj_obj2nid(ptr noundef %0, i32 noundef %1) #0 {
  %3 = alloca i32, align 4
  %4 = alloca ptr, align 8
  %5 = alloca i32, align 4
  %6 = alloca i32, align 4
  %7 = alloca ptr, align 8
  %8 = alloca %struct.added_obj_st, align 8
  %9 = alloca ptr, align 8
  %10 = alloca i32, align 4
  store ptr %0, ptr %4, align 8, !tbaa !23
  store i32 %1, ptr %5, align 4, !tbaa !21
  call void @llvm.lifetime.start.p0(i64 4, ptr %6) #6
  store i32 0, ptr %6, align 4, !tbaa !21
  call void @llvm.lifetime.start.p0(i64 8, ptr %7) #6
  call void @llvm.lifetime.start.p0(i64 16, ptr %8) #6
  call void @llvm.lifetime.start.p0(i64 8, ptr %9) #6
  %11 = load ptr, ptr %4, align 8, !tbaa !23
  %12 = icmp eq ptr %11, null
  br i1 %12, label %13, label %14

13:                                               ; preds = %2
  store i32 0, ptr %3, align 4
  store i32 1, ptr %10, align 4
  br label %66

14:                                               ; preds = %2
  %15 = load ptr, ptr %4, align 8, !tbaa !23
  %16 = getelementptr inbounds nuw %struct.asn1_object_st, ptr %15, i32 0, i32 2
  %17 = load i32, ptr %16, align 8, !tbaa !17
  %18 = icmp ne i32 %17, 0
  br i1 %18, label %19, label %23

19:                                               ; preds = %14
  %20 = load ptr, ptr %4, align 8, !tbaa !23
  %21 = getelementptr inbounds nuw %struct.asn1_object_st, ptr %20, i32 0, i32 2
  %22 = load i32, ptr %21, align 8, !tbaa !17
  store i32 %22, ptr %3, align 4
  store i32 1, ptr %10, align 4
  br label %66

23:                                               ; preds = %14
  %24 = load ptr, ptr %4, align 8, !tbaa !23
  %25 = getelementptr inbounds nuw %struct.asn1_object_st, ptr %24, i32 0, i32 3
  %26 = load i32, ptr %25, align 4, !tbaa !31
  %27 = icmp eq i32 %26, 0
  br i1 %27, label %28, label %29

28:                                               ; preds = %23
  store i32 0, ptr %3, align 4
  store i32 1, ptr %10, align 4
  br label %66

29:                                               ; preds = %23
  %30 = call ptr @OBJ_bsearch_obj(ptr noundef %4, ptr noundef @obj_objs, i32 noundef 1344)
  store ptr %30, ptr %7, align 8, !tbaa !28
  %31 = load ptr, ptr %7, align 8, !tbaa !28
  %32 = icmp ne ptr %31, null
  br i1 %32, label %33, label %40

33:                                               ; preds = %29
  %34 = load ptr, ptr %7, align 8, !tbaa !28
  %35 = load i32, ptr %34, align 4, !tbaa !21
  %36 = zext i32 %35 to i64
  %37 = getelementptr inbounds nuw [1487 x %struct.asn1_object_st], ptr @nid_objs, i64 0, i64 %36
  %38 = getelementptr inbounds nuw %struct.asn1_object_st, ptr %37, i32 0, i32 2
  %39 = load i32, ptr %38, align 8, !tbaa !17
  store i32 %39, ptr %3, align 4
  store i32 1, ptr %10, align 4
  br label %66

40:                                               ; preds = %29
  %41 = load i32, ptr %5, align 4, !tbaa !21
  %42 = call i32 @ossl_obj_read_lock(i32 noundef %41)
  %43 = icmp ne i32 %42, 0
  br i1 %43, label %45, label %44

44:                                               ; preds = %40
  call void @ERR_new()
  call void @ERR_set_debug(ptr noundef @.str, i32 noundef 403, ptr noundef @__func__.ossl_obj_obj2nid)
  call void (i32, i32, ptr, ...) @ERR_set_error(i32 noundef 8, i32 noundef 786703, ptr noundef null)
  store i32 0, ptr %3, align 4
  store i32 1, ptr %10, align 4
  br label %66

45:                                               ; preds = %40
  %46 = load ptr, ptr @added, align 8, !tbaa !3
  %47 = icmp ne ptr %46, null
  br i1 %47, label %48, label %63

48:                                               ; preds = %45
  %49 = getelementptr inbounds nuw %struct.added_obj_st, ptr %8, i32 0, i32 0
  store i32 0, ptr %49, align 8, !tbaa !22
  %50 = load ptr, ptr %4, align 8, !tbaa !23
  %51 = getelementptr inbounds nuw %struct.added_obj_st, ptr %8, i32 0, i32 1
  store ptr %50, ptr %51, align 8, !tbaa !13
  %52 = load ptr, ptr @added, align 8, !tbaa !3
  %53 = call ptr @lh_ADDED_OBJ_retrieve(ptr noundef %52, ptr noundef %8)
  store ptr %53, ptr %9, align 8, !tbaa !11
  %54 = load ptr, ptr %9, align 8, !tbaa !11
  %55 = icmp ne ptr %54, null
  br i1 %55, label %56, label %62

56:                                               ; preds = %48
  %57 = load ptr, ptr %9, align 8, !tbaa !11
  %58 = getelementptr inbounds nuw %struct.added_obj_st, ptr %57, i32 0, i32 1
  %59 = load ptr, ptr %58, align 8, !tbaa !13
  %60 = getelementptr inbounds nuw %struct.asn1_object_st, ptr %59, i32 0, i32 2
  %61 = load i32, ptr %60, align 8, !tbaa !17
  store i32 %61, ptr %6, align 4, !tbaa !21
  br label %62

62:                                               ; preds = %56, %48
  br label %63

63:                                               ; preds = %62, %45
  %64 = load i32, ptr %5, align 4, !tbaa !21
  call void @ossl_obj_unlock(i32 noundef %64)
  %65 = load i32, ptr %6, align 4, !tbaa !21
  store i32 %65, ptr %3, align 4
  store i32 1, ptr %10, align 4
  br label %66

66:                                               ; preds = %63, %44, %33, %28, %19, %13
  call void @llvm.lifetime.end.p0(i64 8, ptr %9) #6
  call void @llvm.lifetime.end.p0(i64 16, ptr %8) #6
  call void @llvm.lifetime.end.p0(i64 8, ptr %7) #6
  call void @llvm.lifetime.end.p0(i64 4, ptr %6) #6
  %67 = load i32, ptr %3, align 4
  ret i32 %67
}