; Function Attrs: nounwind uwtable
define internal fastcc i32 @ossl_obj_obj2nid(ptr noundef %0, i32 noundef range(i32 0, 2) %1) unnamed_addr #0 {
  %3 = alloca ptr, align 8
  %4 = alloca %struct.added_obj_st, align 8
  store ptr %0, ptr %3, align 8, !tbaa !22
  call void @llvm.lifetime.start.p0(i64 16, ptr nonnull %4) #10
  %5 = icmp eq ptr %0, null
  br i1 %5, label %ossl_obj_unlock.exit, label %6

6:                                                ; preds = %2
  %7 = getelementptr inbounds nuw i8, ptr %0, i64 16
  %8 = load i32, ptr %7, align 8, !tbaa !13
  %.not = icmp eq i32 %8, 0
  br i1 %.not, label %9, label %ossl_obj_unlock.exit

9:                                                ; preds = %6
  %10 = getelementptr inbounds nuw i8, ptr %0, i64 20
  %11 = load i32, ptr %10, align 4, !tbaa !25
  %12 = icmp eq i32 %11, 0
  br i1 %12, label %ossl_obj_unlock.exit, label %13

13:                                               ; preds = %9
  %14 = call ptr @ossl_bsearch(ptr noundef nonnull %3, ptr noundef nonnull @obj_objs, i32 noundef 1344, i32 noundef 4, ptr noundef nonnull @obj_cmp_BSEARCH_CMP_FN, i32 noundef 0) #10
  %.not12 = icmp eq ptr %14, null
  br i1 %.not12, label %20, label %15

15:                                               ; preds = %13
  %16 = load i32, ptr %14, align 4, !tbaa !23
  %17 = zext i32 %16 to i64
  %18 = getelementptr inbounds nuw [1487 x %struct.asn1_object_st], ptr @nid_objs, i64 0, i64 %17, i32 2
  %19 = load i32, ptr %18, align 8, !tbaa !13
  br label %ossl_obj_unlock.exit

20:                                               ; preds = %13
  %.not.i = icmp eq i32 %1, 0
  br i1 %.not.i, label %ossl_obj_read_lock.exit.thread19, label %21

21:                                               ; preds = %20
  %22 = call i32 @OPENSSL_init_crypto(i64 noundef 64, ptr noundef null) #10
  %23 = call i32 @CRYPTO_THREAD_run_once(ptr noundef nonnull @ossl_obj_lock_init, ptr noundef nonnull @obj_lock_initialise_ossl_) #10
  %.not.i.i = icmp eq i32 %23, 0
  %24 = load i32, ptr @obj_lock_initialise_ossl_ret_, align 4
  %.not23.i = icmp eq i32 %24, 0
  %.not2.i = select i1 %.not.i.i, i1 true, i1 %.not23.i
  br i1 %.not2.i, label %ossl_obj_read_lock.exit.thread, label %ossl_obj_read_lock.exit

ossl_obj_read_lock.exit:                          ; preds = %21
  %25 = load ptr, ptr @ossl_obj_lock, align 8, !tbaa !8
  %26 = call i32 @CRYPTO_THREAD_read_lock(ptr noundef %25) #10
  %.not13 = icmp eq i32 %26, 0
  br i1 %.not13, label %ossl_obj_read_lock.exit.thread, label %ossl_obj_read_lock.exit.thread19

ossl_obj_read_lock.exit.thread:                   ; preds = %21, %ossl_obj_read_lock.exit
  call void @ERR_new() #10
  call void @ERR_set_debug(ptr noundef nonnull @.str, i32 noundef 403, ptr noundef nonnull @__func__.ossl_obj_obj2nid) #10
  call void (i32, i32, ptr, ...) @ERR_set_error(i32 noundef 8, i32 noundef 786703, ptr noundef null) #10
  br label %ossl_obj_unlock.exit

ossl_obj_read_lock.exit.thread19:                 ; preds = %20, %ossl_obj_read_lock.exit
  %27 = load ptr, ptr @added, align 8, !tbaa !3
  %.not14 = icmp eq ptr %27, null
  br i1 %.not14, label %37, label %28

28:                                               ; preds = %ossl_obj_read_lock.exit.thread19
  store i32 0, ptr %4, align 8, !tbaa !17
  %29 = load ptr, ptr %3, align 8, !tbaa !22
  %30 = getelementptr inbounds nuw i8, ptr %4, i64 8
  store ptr %29, ptr %30, align 8, !tbaa !9
  %31 = call ptr @OPENSSL_LH_retrieve(ptr noundef nonnull %27, ptr noundef nonnull %4) #10
  %.not15 = icmp eq ptr %31, null
  br i1 %.not15, label %37, label %32

32:                                               ; preds = %28
  %33 = getelementptr inbounds nuw i8, ptr %31, i64 8
  %34 = load ptr, ptr %33, align 8, !tbaa !9
  %35 = getelementptr inbounds nuw i8, ptr %34, i64 16
  %36 = load i32, ptr %35, align 8, !tbaa !13
  br label %37

37:                                               ; preds = %28, %32, %ossl_obj_read_lock.exit.thread19
  %.07 = phi i32 [ %36, %32 ], [ 0, %28 ], [ 0, %ossl_obj_read_lock.exit.thread19 ]
  br i1 %.not.i, label %ossl_obj_unlock.exit, label %38

38:                                               ; preds = %37
  %39 = load ptr, ptr @ossl_obj_lock, align 8, !tbaa !8
  %40 = call i32 @CRYPTO_THREAD_unlock(ptr noundef %39) #10
  br label %ossl_obj_unlock.exit

ossl_obj_unlock.exit:                             ; preds = %38, %37, %9, %6, %2, %ossl_obj_read_lock.exit.thread, %15
  %.0 = phi i32 [ %19, %15 ], [ 0, %ossl_obj_read_lock.exit.thread ], [ 0, %2 ], [ %8, %6 ], [ 0, %9 ], [ %.07, %37 ], [ %.07, %38 ]
  call void @llvm.lifetime.end.p0(i64 16, ptr nonnull %4) #10
  ret i32 %.0
}